; Function Attrs: mustprogress nofree norecurse nosync nounwind willreturn memory(argmem: read) uwtable
define range(i32 0, 2) i32 @evp_keymgmt_has_load(ptr noundef readonly captures(address_is_null) %0) local_unnamed_addr #4 {
  %.not = icmp eq ptr %0, null
  br i1 %.not, label %7, label %2

2:                                                ; preds = %1
  %3 = getelementptr inbounds nuw i8, ptr %0, i64 160
  %4 = load ptr, ptr %3, align 8, !tbaa !33
  %5 = icmp ne ptr %4, null
  %6 = zext i1 %5 to i32
  br label %7

7:                                                ; preds = %2, %1
  %8 = phi i32 [ 0, %1 ], [ %6, %2 ]
  ret i32 %8
}